; Function Attrs: nounwind uwtable
define i32 @arkStep_GetNumLinSolvSetups(ptr noundef %0, ptr noundef writeonly captures(none) %1) local_unnamed_addr #0 {
  %3 = alloca ptr, align 8
  call void @llvm.lifetime.start.p0(i64 8, ptr nonnull %3) #5
  %4 = call i32 @arkStep_AccessStepMem(ptr noundef %0, ptr noundef nonnull @__func__.arkStep_GetNumLinSolvSetups, ptr noundef nonnull %3) #5
  %.not = icmp eq i32 %4, 0
  br i1 %.not, label %5, label %9

5:                                                ; preds = %2
  %6 = load ptr, ptr %3, align 8, !tbaa !3
  %7 = getelementptr inbounds nuw i8, ptr %6, i64 400
  %8 = load i64, ptr %7, align 8, !tbaa !56
  store i64 %8, ptr %1, align 8, !tbaa !41
  br label %9

9:                                                ; preds = %2, %5
  call void @llvm.lifetime.end.p0(i64 8, ptr nonnull %3) #5
  ret i32 %4
}